target datalayout = "e-m:e-p270:32:32-p271:32:32-p272:64:64-i64:64-i128:128-f80:128-n8:16:32:64-S128"
target triple = "x86_64-pc-linux-gnu"

%struct.Font = type { i32, i32, i32, %struct.Texture, ptr, ptr }
%struct.Texture = type { i32, i32, i32, i32, i32 }
%struct.Image = type { ptr, i32, i32, i32, i32 }
%struct.GlyphInfo = type { i32, i32, i32, i32, %struct.Image }
%struct.Rectangle = type { float, float, float, float }

@defaultFont = internal global %struct.Font zeroinitializer, align 8
@isGpuReady = external global i8, align 1
@.str = private unnamed_addr constant [51 x i8] c"FONT: Default font loaded successfully (%i glyphs)\00", align 1

; Function Attrs: nounwind uwtable
define hidden void @LoadFontDefault() #3 {
  %1 = alloca [512 x i32], align 16
  %2 = alloca i32, align 4
  %3 = alloca i32, align 4
  %4 = alloca [224 x i32], align 16
  %5 = alloca %struct.Image, align 8
  %6 = alloca i32, align 4
  %7 = alloca i32, align 4
  %8 = alloca i32, align 4
  %9 = alloca i32, align 4
  %10 = alloca %struct.Texture, align 4
  %11 = alloca i32, align 4
  %12 = alloca i32, align 4
  %13 = alloca i32, align 4
  %14 = alloca i32, align 4
  %15 = alloca %struct.Image, align 8
  store i32 224, ptr getelementptr inbounds nuw (%struct.Font, ptr @defaultFont, i32 0, i32 1), align 4
  store i32 0, ptr getelementptr inbounds nuw (%struct.Font, ptr @defaultFont, i32 0, i32 2), align 8
  call void @llvm.lifetime.start.p0(i64 2048, ptr %1) #13
  call void @llvm.memcpy.p0.p0.i64(ptr align 16 %1, ptr align 16 @__const.LoadFontDefault.defaultFontData, i64 2048, i1 false)
  call void @llvm.lifetime.start.p0(i64 4, ptr %2) #13
  store i32 10, ptr %2, align 4
  call void @llvm.lifetime.start.p0(i64 4, ptr %3) #13
  store i32 1, ptr %3, align 4
  call void @llvm.lifetime.start.p0(i64 896, ptr %4) #13
  call void @llvm.memcpy.p0.p0.i64(ptr align 16 %4, ptr align 16 @__const.LoadFontDefault.charsWidth, i64 896, i1 false)
  call void @llvm.lifetime.start.p0(i64 24, ptr %5) #13
  %16 = getelementptr inbounds nuw %struct.Image, ptr %5, i32 0, i32 0
  %17 = call noalias ptr @calloc(i64 noundef 16384, i64 noundef 2) #14
  store ptr %17, ptr %16, align 8
  %18 = getelementptr inbounds nuw %struct.Image, ptr %5, i32 0, i32 1
  store i32 128, ptr %18, align 8
  %19 = getelementptr inbounds nuw %struct.Image, ptr %5, i32 0, i32 2
  store i32 128, ptr %19, align 4
  %20 = getelementptr inbounds nuw %struct.Image, ptr %5, i32 0, i32 3
  store i32 1, ptr %20, align 8
  %21 = getelementptr inbounds nuw %struct.Image, ptr %5, i32 0, i32 4
  store i32 2, ptr %21, align 4
  call void @llvm.lifetime.start.p0(i64 4, ptr %6) #13
  store i32 0, ptr %6, align 4
  call void @llvm.lifetime.start.p0(i64 4, ptr %7) #13
  store i32 0, ptr %7, align 4
  br label %22

22:                                               ; preds = %78, %0
  %23 = load i32, ptr %6, align 4
  %24 = getelementptr inbounds nuw %struct.Image, ptr %5, i32 0, i32 1
  %25 = load i32, ptr %24, align 8
  %26 = getelementptr inbounds nuw %struct.Image, ptr %5, i32 0, i32 2
  %27 = load i32, ptr %26, align 4
  %28 = mul nsw i32 %25, %27
  %29 = icmp slt i32 %23, %28
  br i1 %29, label %31, label %30

30:                                               ; preds = %22
  store i32 2, ptr %8, align 4
  call void @llvm.lifetime.end.p0(i64 4, ptr %7) #13
  call void @llvm.lifetime.end.p0(i64 4, ptr %6) #13
  br label %81

31:                                               ; preds = %22
  call void @llvm.lifetime.start.p0(i64 4, ptr %9) #13
  store i32 31, ptr %9, align 4
  br label %32

32:                                               ; preds = %72, %31
  %33 = load i32, ptr %9, align 4
  %34 = icmp sge i32 %33, 0
  br i1 %34, label %36, label %35

35:                                               ; preds = %32
  store i32 5, ptr %8, align 4
  call void @llvm.lifetime.end.p0(i64 4, ptr %9) #13
  br label %75

36:                                               ; preds = %32
  %37 = load i32, ptr %7, align 4
  %38 = sext i32 %37 to i64
  %39 = getelementptr inbounds [512 x i32], ptr %1, i64 0, i64 %38
  %40 = load i32, ptr %39, align 4
  %41 = load i32, ptr %9, align 4
  %42 = shl i32 1, %41
  %43 = and i32 %40, %42
  %44 = icmp ne i32 %43, 0
  br i1 %44, label %45, label %53

45:                                               ; preds = %36
  %46 = getelementptr inbounds nuw %struct.Image, ptr %5, i32 0, i32 0
  %47 = load ptr, ptr %46, align 8
  %48 = load i32, ptr %6, align 4
  %49 = load i32, ptr %9, align 4
  %50 = add nsw i32 %48, %49
  %51 = sext i32 %50 to i64
  %52 = getelementptr inbounds i16, ptr %47, i64 %51
  store i16 -1, ptr %52, align 2
  br label %71

53:                                               ; preds = %36
  %54 = getelementptr inbounds nuw %struct.Image, ptr %5, i32 0, i32 0
  %55 = load ptr, ptr %54, align 8
  %56 = load i32, ptr %6, align 4
  %57 = load i32, ptr %9, align 4
  %58 = add nsw i32 %56, %57
  %59 = sext i32 %58 to i64
  %60 = mul i64 %59, 2
  %61 = getelementptr inbounds nuw i8, ptr %55, i64 %60
  store i8 -1, ptr %61, align 1
  %62 = getelementptr inbounds nuw %struct.Image, ptr %5, i32 0, i32 0
  %63 = load ptr, ptr %62, align 8
  %64 = load i32, ptr %6, align 4
  %65 = load i32, ptr %9, align 4
  %66 = add nsw i32 %64, %65
  %67 = sext i32 %66 to i64
  %68 = mul i64 %67, 2
  %69 = add i64 %68, 1
  %70 = getelementptr inbounds nuw i8, ptr %63, i64 %69
  store i8 0, ptr %70, align 1
  br label %71

71:                                               ; preds = %53, %45
  br label %72

72:                                               ; preds = %71
  %73 = load i32, ptr %9, align 4
  %74 = add nsw i32 %73, -1
  store i32 %74, ptr %9, align 4
  br label %32

75:                                               ; preds = %35
  %76 = load i32, ptr %7, align 4
  %77 = add nsw i32 %76, 1
  store i32 %77, ptr %7, align 4
  br label %78

78:                                               ; preds = %75
  %79 = load i32, ptr %6, align 4
  %80 = add nsw i32 %79, 32
  store i32 %80, ptr %6, align 4
  br label %22

81:                                               ; preds = %30
  %82 = load i8, ptr @isGpuReady, align 1, !range !3, !noundef !4
  %83 = trunc i8 %82 to i1
  br i1 %83, label %84, label %85

84:                                               ; preds = %81
  call void @llvm.lifetime.start.p0(i64 20, ptr %10) #13
  call void @LoadTextureFromImage(ptr dead_on_unwind writable sret(%struct.Texture) align 4 %10, ptr noundef byval(%struct.Image) align 8 %5)
  call void @llvm.memcpy.p0.p0.i64(ptr align 4 getelementptr inbounds nuw (%struct.Font, ptr @defaultFont, i32 0, i32 3), ptr align 4 %10, i64 20, i1 false)
  call void @llvm.lifetime.end.p0(i64 20, ptr %10) #13
  br label %85

85:                                               ; preds = %84, %81
  %86 = load i32, ptr getelementptr inbounds nuw (%struct.Font, ptr @defaultFont, i32 0, i32 1), align 4
  %87 = sext i32 %86 to i64
  %88 = call noalias ptr @calloc(i64 noundef %87, i64 noundef 40) #14
  store ptr %88, ptr getelementptr inbounds nuw (%struct.Font, ptr @defaultFont, i32 0, i32 5), align 8
  %89 = load i32, ptr getelementptr inbounds nuw (%struct.Font, ptr @defaultFont, i32 0, i32 1), align 4
  %90 = sext i32 %89 to i64
  %91 = call noalias ptr @calloc(i64 noundef %90, i64 noundef 16) #14
  store ptr %91, ptr getelementptr inbounds nuw (%struct.Font, ptr @defaultFont, i32 0, i32 4), align 8
  call void @llvm.lifetime.start.p0(i64 4, ptr %11) #13
  store i32 0, ptr %11, align 4
  call void @llvm.lifetime.start.p0(i64 4, ptr %12) #13
  %92 = load i32, ptr %3, align 4
  store i32 %92, ptr %12, align 4
  call void @llvm.lifetime.start.p0(i64 4, ptr %13) #13
  %93 = load i32, ptr %3, align 4
  store i32 %93, ptr %13, align 4
  call void @llvm.lifetime.start.p0(i64 4, ptr %14) #13
  store i32 0, ptr %14, align 4
  br label %94

94:                                               ; preds = %221, %85
  %95 = load i32, ptr %14, align 4
  %96 = load i32, ptr getelementptr inbounds nuw (%struct.Font, ptr @defaultFont, i32 0, i32 1), align 4
  %97 = icmp slt i32 %95, %96
  br i1 %97, label %99, label %98

98:                                               ; preds = %94
  store i32 8, ptr %8, align 4
  call void @llvm.lifetime.end.p0(i64 4, ptr %14) #13
  br label %224

99:                                               ; preds = %94
  %100 = load i32, ptr %14, align 4
  %101 = add nsw i32 32, %100
  %102 = load ptr, ptr getelementptr inbounds nuw (%struct.Font, ptr @defaultFont, i32 0, i32 5), align 8
  %103 = load i32, ptr %14, align 4
  %104 = sext i32 %103 to i64
  %105 = getelementptr inbounds %struct.GlyphInfo, ptr %102, i64 %104
  %106 = getelementptr inbounds nuw %struct.GlyphInfo, ptr %105, i32 0, i32 0
  store i32 %101, ptr %106, align 8
  %107 = load i32, ptr %12, align 4
  %108 = sitofp i32 %107 to float
  %109 = load ptr, ptr getelementptr inbounds nuw (%struct.Font, ptr @defaultFont, i32 0, i32 4), align 8
  %110 = load i32, ptr %14, align 4
  %111 = sext i32 %110 to i64
  %112 = getelementptr inbounds %struct.Rectangle, ptr %109, i64 %111
  %113 = getelementptr inbounds nuw %struct.Rectangle, ptr %112, i32 0, i32 0
  store float %108, ptr %113, align 4
  %114 = load i32, ptr %3, align 4
  %115 = load i32, ptr %11, align 4
  %116 = load i32, ptr %2, align 4
  %117 = load i32, ptr %3, align 4
  %118 = add nsw i32 %116, %117
  %119 = mul nsw i32 %115, %118
  %120 = add nsw i32 %114, %119
  %121 = sitofp i32 %120 to float
  %122 = load ptr, ptr getelementptr inbounds nuw (%struct.Font, ptr @defaultFont, i32 0, i32 4), align 8
  %123 = load i32, ptr %14, align 4
  %124 = sext i32 %123 to i64
  %125 = getelementptr inbounds %struct.Rectangle, ptr %122, i64 %124
  %126 = getelementptr inbounds nuw %struct.Rectangle, ptr %125, i32 0, i32 1
  store float %121, ptr %126, align 4
  %127 = load i32, ptr %14, align 4
  %128 = sext i32 %127 to i64
  %129 = getelementptr inbounds [224 x i32], ptr %4, i64 0, i64 %128
  %130 = load i32, ptr %129, align 4
  %131 = sitofp i32 %130 to float
  %132 = load ptr, ptr getelementptr inbounds nuw (%struct.Font, ptr @defaultFont, i32 0, i32 4), align 8
  %133 = load i32, ptr %14, align 4
  %134 = sext i32 %133 to i64
  %135 = getelementptr inbounds %struct.Rectangle, ptr %132, i64 %134
  %136 = getelementptr inbounds nuw %struct.Rectangle, ptr %135, i32 0, i32 2
  store float %131, ptr %136, align 4
  %137 = load i32, ptr %2, align 4
  %138 = sitofp i32 %137 to float
  %139 = load ptr, ptr getelementptr inbounds nuw (%struct.Font, ptr @defaultFont, i32 0, i32 4), align 8
  %140 = load i32, ptr %14, align 4
  %141 = sext i32 %140 to i64
  %142 = getelementptr inbounds %struct.Rectangle, ptr %139, i64 %141
  %143 = getelementptr inbounds nuw %struct.Rectangle, ptr %142, i32 0, i32 3
  store float %138, ptr %143, align 4
  %144 = load ptr, ptr getelementptr inbounds nuw (%struct.Font, ptr @defaultFont, i32 0, i32 4), align 8
  %145 = load i32, ptr %14, align 4
  %146 = sext i32 %145 to i64
  %147 = getelementptr inbounds %struct.Rectangle, ptr %144, i64 %146
  %148 = getelementptr inbounds nuw %struct.Rectangle, ptr %147, i32 0, i32 2
  %149 = load float, ptr %148, align 4
  %150 = load i32, ptr %3, align 4
  %151 = sitofp i32 %150 to float
  %152 = fadd float %149, %151
  %153 = fptosi float %152 to i32
  %154 = load i32, ptr %13, align 4
  %155 = add nsw i32 %154, %153
  store i32 %155, ptr %13, align 4
  %156 = load i32, ptr %13, align 4
  %157 = load i32, ptr getelementptr inbounds nuw (%struct.Texture, ptr getelementptr inbounds nuw (%struct.Font, ptr @defaultFont, i32 0, i32 3), i32 0, i32 1), align 4
  %158 = icmp sge i32 %156, %157
  br i1 %158, label %159, label %190

159:                                              ; preds = %99
  %160 = load i32, ptr %11, align 4
  %161 = add nsw i32 %160, 1
  store i32 %161, ptr %11, align 4
  %162 = load i32, ptr %3, align 4
  %163 = mul nsw i32 2, %162
  %164 = load i32, ptr %14, align 4
  %165 = sext i32 %164 to i64
  %166 = getelementptr inbounds [224 x i32], ptr %4, i64 0, i64 %165
  %167 = load i32, ptr %166, align 4
  %168 = add nsw i32 %163, %167
  store i32 %168, ptr %12, align 4
  %169 = load i32, ptr %12, align 4
  store i32 %169, ptr %13, align 4
  %170 = load i32, ptr %3, align 4
  %171 = sitofp i32 %170 to float
  %172 = load ptr, ptr getelementptr inbounds nuw (%struct.Font, ptr @defaultFont, i32 0, i32 4), align 8
  %173 = load i32, ptr %14, align 4
  %174 = sext i32 %173 to i64
  %175 = getelementptr inbounds %struct.Rectangle, ptr %172, i64 %174
  %176 = getelementptr inbounds nuw %struct.Rectangle, ptr %175, i32 0, i32 0
  store float %171, ptr %176, align 4
  %177 = load i32, ptr %3, align 4
  %178 = load i32, ptr %11, align 4
  %179 = load i32, ptr %2, align 4
  %180 = load i32, ptr %3, align 4
  %181 = add nsw i32 %179, %180
  %182 = mul nsw i32 %178, %181
  %183 = add nsw i32 %177, %182
  %184 = sitofp i32 %183 to float
  %185 = load ptr, ptr getelementptr inbounds nuw (%struct.Font, ptr @defaultFont, i32 0, i32 4), align 8
  %186 = load i32, ptr %14, align 4
  %187 = sext i32 %186 to i64
  %188 = getelementptr inbounds %struct.Rectangle, ptr %185, i64 %187
  %189 = getelementptr inbounds nuw %struct.Rectangle, ptr %188, i32 0, i32 1
  store float %184, ptr %189, align 4
  br label %192

190:                                              ; preds = %99
  %191 = load i32, ptr %13, align 4
  store i32 %191, ptr %12, align 4
  br label %192

192:                                              ; preds = %190, %159
  %193 = load ptr, ptr getelementptr inbounds nuw (%struct.Font, ptr @defaultFont, i32 0, i32 5), align 8
  %194 = load i32, ptr %14, align 4
  %195 = sext i32 %194 to i64
  %196 = getelementptr inbounds %struct.GlyphInfo, ptr %193, i64 %195
  %197 = getelementptr inbounds nuw %struct.GlyphInfo, ptr %196, i32 0, i32 1
  store i32 0, ptr %197, align 4
  %198 = load ptr, ptr getelementptr inbounds nuw (%struct.Font, ptr @defaultFont, i32 0, i32 5), align 8
  %199 = load i32, ptr %14, align 4
  %200 = sext i32 %199 to i64
  %201 = getelementptr inbounds %struct.GlyphInfo, ptr %198, i64 %200
  %202 = getelementptr inbounds nuw %struct.GlyphInfo, ptr %201, i32 0, i32 2
  store i32 0, ptr %202, align 8
  %203 = load ptr, ptr getelementptr inbounds nuw (%struct.Font, ptr @defaultFont, i32 0, i32 5), align 8
  %204 = load i32, ptr %14, align 4
  %205 = sext i32 %204 to i64
  %206 = getelementptr inbounds %struct.GlyphInfo, ptr %203, i64 %205
  %207 = getelementptr inbounds nuw %struct.GlyphInfo, ptr %206, i32 0, i32 3
  store i32 0, ptr %207, align 4
  %208 = load ptr, ptr getelementptr inbounds nuw (%struct.Font, ptr @defaultFont, i32 0, i32 5), align 8
  %209 = load i32, ptr %14, align 4
  %210 = sext i32 %209 to i64
  %211 = getelementptr inbounds %struct.GlyphInfo, ptr %208, i64 %210
  %212 = getelementptr inbounds nuw %struct.GlyphInfo, ptr %211, i32 0, i32 4
  call void @llvm.lifetime.start.p0(i64 24, ptr %15) #13
  %213 = load ptr, ptr getelementptr inbounds nuw (%struct.Font, ptr @defaultFont, i32 0, i32 4), align 8
  %214 = load i32, ptr %14, align 4
  %215 = sext i32 %214 to i64
  %216 = getelementptr inbounds %struct.Rectangle, ptr %213, i64 %215
  %217 = getelementptr inbounds nuw { <2 x float>, <2 x float> }, ptr %216, i32 0, i32 0
  %218 = load <2 x float>, ptr %217, align 4
  %219 = getelementptr inbounds nuw { <2 x float>, <2 x float> }, ptr %216, i32 0, i32 1
  %220 = load <2 x float>, ptr %219, align 4
  call void @ImageFromImage(ptr dead_on_unwind writable sret(%struct.Image) align 8 %15, ptr noundef byval(%struct.Image) align 8 %5, <2 x float> %218, <2 x float> %220)
  call void @llvm.memcpy.p0.p0.i64(ptr align 8 %212, ptr align 8 %15, i64 24, i1 false)
  call void @llvm.lifetime.end.p0(i64 24, ptr %15) #13
  br label %221

221:                                              ; preds = %192
  %222 = load i32, ptr %14, align 4
  %223 = add nsw i32 %222, 1
  store i32 %223, ptr %14, align 4
  br label %94

224:                                              ; preds = %98
  call void @UnloadImage(ptr noundef byval(%struct.Image) align 8 %5)
  %225 = load ptr, ptr getelementptr inbounds nuw (%struct.Font, ptr @defaultFont, i32 0, i32 4), align 8
  %226 = getelementptr inbounds %struct.Rectangle, ptr %225, i64 0
  %227 = getelementptr inbounds nuw %struct.Rectangle, ptr %226, i32 0, i32 3
  %228 = load float, ptr %227, align 4
  %229 = fptosi float %228 to i32
  store i32 %229, ptr @defaultFont, align 8
  %230 = load i32, ptr getelementptr inbounds nuw (%struct.Font, ptr @defaultFont, i32 0, i32 1), align 4
  call void (i32, ptr, ...) @TraceLog(i32 noundef 3, ptr noundef @.str, i32 noundef %230)
  call void @llvm.lifetime.end.p0(i64 4, ptr %13) #13
  call void @llvm.lifetime.end.p0(i64 4, ptr %12) #13
  call void @llvm.lifetime.end.p0(i64 4, ptr %11) #13
  call void @llvm.lifetime.end.p0(i64 24, ptr %5) #13
  call void @llvm.lifetime.end.p0(i64 896, ptr %4) #13
  call void @llvm.lifetime.end.p0(i64 4, ptr %3) #13
  call void @llvm.lifetime.end.p0(i64 4, ptr %2) #13
  call void @llvm.lifetime.end.p0(i64 2048, ptr %1) #13
  ret void
}