; Function Attrs: nounwind uwtable
define hidden void @LoadFontDefault() local_unnamed_addr #6 {
  %1 = alloca %struct.Image, align 8
  %2 = alloca %struct.Texture, align 4
  %3 = alloca %struct.Image, align 8
  store i32 224, ptr getelementptr inbounds nuw (i8, ptr @defaultFont, i64 4), align 4
  store i32 0, ptr getelementptr inbounds nuw (i8, ptr @defaultFont, i64 8), align 8
  call void @llvm.lifetime.start.p0(i64 24, ptr nonnull %1) #41
  %4 = tail call noalias dereferenceable_or_null(32768) ptr @calloc(i64 noundef 16384, i64 noundef 2) #42
  store ptr %4, ptr %1, align 8
  %5 = getelementptr inbounds nuw i8, ptr %1, i64 8
  store i32 128, ptr %5, align 8
  %6 = getelementptr inbounds nuw i8, ptr %1, i64 12
  store i32 128, ptr %6, align 4
  %7 = getelementptr inbounds nuw i8, ptr %1, i64 16
  store i32 1, ptr %7, align 8
  %8 = getelementptr inbounds nuw i8, ptr %1, i64 20
  store i32 2, ptr %8, align 4
  br label %.preheader

.preheader:                                       ; preds = %0, %14
  %indvars.iv70 = phi i64 [ 0, %0 ], [ %indvars.iv.next71, %14 ]
  %indvars.iv68 = phi i64 [ 0, %0 ], [ %indvars.iv.next69, %14 ]
  %9 = getelementptr inbounds nuw [512 x i32], ptr @__const.LoadFontDefault.defaultFontData, i64 0, i64 %indvars.iv68
  %10 = load i32, ptr %9, align 4
  %invariant.gep = getelementptr i16, ptr %4, i64 %indvars.iv70
  br label %15

11:                                               ; preds = %14
  %12 = load i8, ptr @isGpuReady, align 1, !range !3, !noundef !4
  %13 = trunc nuw i8 %12 to i1
  br i1 %13, label %27, label %28

14:                                               ; preds = %26
  %indvars.iv.next69 = add nuw nsw i64 %indvars.iv68, 1
  %indvars.iv.next71 = add nuw nsw i64 %indvars.iv70, 32
  %exitcond.not = icmp eq i64 %indvars.iv.next69, 512
  br i1 %exitcond.not, label %11, label %.preheader

15:                                               ; preds = %.preheader, %26
  %indvars.iv = phi i64 [ 31, %.preheader ], [ %indvars.iv.next, %26 ]
  %16 = trunc nuw nsw i64 %indvars.iv to i32
  %17 = shl nuw i32 1, %16
  %18 = and i32 %10, %17
  %.not60 = icmp eq i32 %18, 0
  br i1 %.not60, label %20, label %19

19:                                               ; preds = %15
  %gep = getelementptr i16, ptr %invariant.gep, i64 %indvars.iv
  store i16 -1, ptr %gep, align 2
  br label %26

20:                                               ; preds = %15
  %21 = add nuw nsw i64 %indvars.iv, %indvars.iv70
  %22 = shl nuw i64 %21, 1
  %23 = getelementptr inbounds nuw i8, ptr %4, i64 %22
  store i8 -1, ptr %23, align 1
  %24 = or disjoint i64 %22, 1
  %25 = getelementptr inbounds nuw i8, ptr %4, i64 %24
  store i8 0, ptr %25, align 1
  br label %26

26:                                               ; preds = %19, %20
  %indvars.iv.next = add nsw i64 %indvars.iv, -1
  %.not78 = icmp eq i64 %indvars.iv, 0
  br i1 %.not78, label %14, label %15

27:                                               ; preds = %11
  call void @llvm.lifetime.start.p0(i64 20, ptr nonnull %2) #41
  call void @LoadTextureFromImage(ptr dead_on_unwind nonnull writable sret(%struct.Texture) align 4 %2, ptr noundef nonnull byval(%struct.Image) align 8 %1) #41
  call void @llvm.memcpy.p0.p0.i64(ptr noundef nonnull align 4 dereferenceable(20) getelementptr inbounds nuw (i8, ptr @defaultFont, i64 12), ptr noundef nonnull align 4 dereferenceable(20) %2, i64 20, i1 false)
  call void @llvm.lifetime.end.p0(i64 20, ptr nonnull %2) #41
  %.pre = load i32, ptr getelementptr inbounds nuw (i8, ptr @defaultFont, i64 4), align 4
  br label %28

28:                                               ; preds = %27, %11
  %29 = phi i32 [ %.pre, %27 ], [ 224, %11 ]
  %30 = sext i32 %29 to i64
  %31 = call noalias ptr @calloc(i64 noundef %30, i64 noundef 40) #42
  store ptr %31, ptr getelementptr inbounds nuw (i8, ptr @defaultFont, i64 40), align 8
  %32 = call noalias ptr @calloc(i64 noundef %30, i64 noundef 16) #42
  store ptr %32, ptr getelementptr inbounds nuw (i8, ptr @defaultFont, i64 32), align 8
  %33 = icmp sgt i32 %29, 0
  br i1 %33, label %.lr.ph, label %._crit_edge

._crit_edge:                                      ; preds = %66, %28
  call void @UnloadImage(ptr noundef nonnull byval(%struct.Image) align 8 %1) #41
  %34 = load ptr, ptr getelementptr inbounds nuw (i8, ptr @defaultFont, i64 32), align 8
  %35 = getelementptr inbounds nuw i8, ptr %34, i64 12
  %36 = load float, ptr %35, align 4
  %37 = fptosi float %36 to i32
  store i32 %37, ptr @defaultFont, align 8
  %38 = load i32, ptr getelementptr inbounds nuw (i8, ptr @defaultFont, i64 4), align 4
  call void (i32, ptr, ...) @TraceLog(i32 noundef 3, ptr noundef nonnull @.str, i32 noundef %38) #41
  call void @llvm.lifetime.end.p0(i64 24, ptr nonnull %1) #41
  ret void

.lr.ph:                                           ; preds = %28, %66
  %indvars.iv75 = phi i64 [ %indvars.iv.next76, %66 ], [ 0, %28 ]
  %.05165 = phi i32 [ %.1, %66 ], [ 1, %28 ]
  %.05464 = phi i32 [ %.155, %66 ], [ 0, %28 ]
  %39 = load ptr, ptr getelementptr inbounds nuw (i8, ptr @defaultFont, i64 40), align 8
  %40 = getelementptr inbounds nuw %struct.GlyphInfo, ptr %39, i64 %indvars.iv75
  %41 = trunc i64 %indvars.iv75 to i32
  %42 = add i32 %41, 32
  store i32 %42, ptr %40, align 8
  %43 = sitofp i32 %.05165 to float
  %44 = load ptr, ptr getelementptr inbounds nuw (i8, ptr @defaultFont, i64 32), align 8
  %45 = getelementptr inbounds nuw %struct.Rectangle, ptr %44, i64 %indvars.iv75
  store float %43, ptr %45, align 4
  %46 = mul nsw i32 %.05464, 11
  %47 = add nsw i32 %46, 1
  %48 = sitofp i32 %47 to float
  %49 = getelementptr inbounds nuw %struct.Rectangle, ptr %44, i64 %indvars.iv75, i32 1
  store float %48, ptr %49, align 4
  %50 = getelementptr inbounds nuw [224 x i32], ptr @__const.LoadFontDefault.charsWidth, i64 0, i64 %indvars.iv75
  %51 = load i32, ptr %50, align 4
  %52 = sitofp i32 %51 to float
  %53 = getelementptr inbounds nuw %struct.Rectangle, ptr %44, i64 %indvars.iv75, i32 2
  store float %52, ptr %53, align 4
  %54 = getelementptr inbounds nuw %struct.Rectangle, ptr %44, i64 %indvars.iv75, i32 3
  store float 1.000000e+01, ptr %54, align 4
  %55 = getelementptr inbounds nuw i8, ptr %45, i64 8
  %56 = fadd float %52, 1.000000e+00
  %57 = fptosi float %56 to i32
  %58 = add nsw i32 %.05165, %57
  %59 = load i32, ptr getelementptr inbounds nuw (i8, ptr @defaultFont, i64 16), align 8
  %.not = icmp slt i32 %58, %59
  br i1 %.not, label %66, label %60

60:                                               ; preds = %.lr.ph
  %61 = add nsw i32 %.05464, 1
  %62 = add nsw i32 %51, 2
  store float 1.000000e+00, ptr %45, align 4
  %63 = mul nsw i32 %61, 11
  %64 = add nsw i32 %63, 1
  %65 = sitofp i32 %64 to float
  store float %65, ptr %49, align 4
  br label %66

66:                                               ; preds = %.lr.ph, %60
  %.155 = phi i32 [ %61, %60 ], [ %.05464, %.lr.ph ]
  %.1 = phi i32 [ %62, %60 ], [ %58, %.lr.ph ]
  %67 = getelementptr inbounds nuw %struct.GlyphInfo, ptr %39, i64 %indvars.iv75, i32 1
  store i32 0, ptr %67, align 4
  %68 = getelementptr inbounds nuw %struct.GlyphInfo, ptr %39, i64 %indvars.iv75, i32 2
  store i32 0, ptr %68, align 8
  %69 = getelementptr inbounds nuw %struct.GlyphInfo, ptr %39, i64 %indvars.iv75, i32 3
  store i32 0, ptr %69, align 4
  %70 = getelementptr inbounds nuw %struct.GlyphInfo, ptr %39, i64 %indvars.iv75, i32 4
  call void @llvm.lifetime.start.p0(i64 24, ptr nonnull %3) #41
  %71 = load <2 x float>, ptr %45, align 4
  %72 = load <2 x float>, ptr %55, align 4
  call void @ImageFromImage(ptr dead_on_unwind nonnull writable sret(%struct.Image) align 8 %3, ptr noundef nonnull byval(%struct.Image) align 8 %1, <2 x float> %71, <2 x float> %72) #41
  call void @llvm.memcpy.p0.p0.i64(ptr noundef nonnull align 8 dereferenceable(24) %70, ptr noundef nonnull align 8 dereferenceable(24) %3, i64 24, i1 false)
  call void @llvm.lifetime.end.p0(i64 24, ptr nonnull %3) #41
  %indvars.iv.next76 = add nuw nsw i64 %indvars.iv75, 1
  %73 = load i32, ptr getelementptr inbounds nuw (i8, ptr @defaultFont, i64 4), align 4
  %74 = sext i32 %73 to i64
  %75 = icmp slt i64 %indvars.iv.next76, %74
  br i1 %75, label %.lr.ph, label %._crit_edge
}